; Function Attrs: mustprogress uwtable
define noundef ptr @_ZNK6icu_7511PluralRules11getKeywordsER10UErrorCode(ptr nocapture noundef nonnull readonly align 8 dereferenceable(28) %this, ptr noundef nonnull align 4 dereferenceable(4) %status) local_unnamed_addr #1 align 2 personality ptr @__gxx_personality_v0 {
entry:
  %0 = load i32, ptr %status, align 4
  %cmp.i = icmp slt i32 %0, 1
  br i1 %cmp.i, label %if.end, label %return

if.end:                                           ; preds = %entry
  %mInternalStatus = getelementptr inbounds i8, ptr %this, i64 24
  %1 = load i32, ptr %mInternalStatus, align 8
  %cmp.i5 = icmp slt i32 %1, 1
  br i1 %cmp.i5, label %if.end6, label %if.then4

if.then4:                                         ; preds = %if.end
  store i32 %1, ptr %status, align 4
  br label %return

if.end6:                                          ; preds = %if.end
  %call7 = tail call noundef ptr @_ZN6icu_757UMemorynwEm(i64 noundef 160) #25
  %new.isnull = icmp eq ptr %call7, null
  br i1 %new.isnull, label %new.cont, label %new.notnull

new.notnull:                                      ; preds = %if.end6
  %mRules = getelementptr inbounds i8, ptr %this, i64 8
  %2 = load ptr, ptr %mRules, align 8
  invoke void @_ZN6icu_7524PluralKeywordEnumerationC1EPNS_9RuleChainER10UErrorCode(ptr noundef nonnull align 8 dereferenceable(160) %call7, ptr noundef %2, ptr noundef nonnull align 4 dereferenceable(4) %status)
          to label %_ZN6icu_7512LocalPointerINS_17StringEnumerationEEC2EPS1_R10UErrorCode.exit unwind label %lpad

new.cont:                                         ; preds = %if.end6
  %3 = load i32, ptr %status, align 4
  %cmp.i.i = icmp sgt i32 %3, 0
  br i1 %cmp.i.i, label %return, label %if.then.i

if.then.i:                                        ; preds = %new.cont
  store i32 7, ptr %status, align 4
  br label %return

_ZN6icu_7512LocalPointerINS_17StringEnumerationEEC2EPS1_R10UErrorCode.exit: ; preds = %new.notnull
  %.pre = load i32, ptr %status, align 4
  %4 = icmp slt i32 %.pre, 1
  br i1 %4, label %return, label %delete.notnull.i

lpad:                                             ; preds = %new.notnull
  %5 = landingpad { ptr, i32 }
          cleanup
  tail call void @_ZN6icu_757UMemorydlEPv(ptr noundef nonnull %call7) #25
  resume { ptr, i32 } %5

delete.notnull.i:                                 ; preds = %_ZN6icu_7512LocalPointerINS_17StringEnumerationEEC2EPS1_R10UErrorCode.exit
  %vtable.i = load ptr, ptr %call7, align 8
  %vfn.i = getelementptr inbounds i8, ptr %vtable.i, i64 8
  %6 = load ptr, ptr %vfn.i, align 8
  tail call void %6(ptr noundef nonnull align 8 dereferenceable(116) %call7) #25
  br label %return

return:                                           ; preds = %new.cont, %if.then.i, %_ZN6icu_7512LocalPointerINS_17StringEnumerationEEC2EPS1_R10UErrorCode.exit, %delete.notnull.i, %entry, %if.then4
  %retval.1 = phi ptr [ null, %if.then4 ], [ null, %entry ], [ null, %delete.notnull.i ], [ %call7, %_ZN6icu_7512LocalPointerINS_17StringEnumerationEEC2EPS1_R10UErrorCode.exit ], [ null, %if.then.i ], [ null, %new.cont ]
  ret ptr %retval.1
}